; ModuleID = 'source-C-CXX/51/81.c'
source_filename = "source-C-CXX/51/81.c"
target datalayout = "e-m:e-p270:32:32-p271:32:32-p272:64:64-i64:64-f80:128-n8:16:32:64-S128"
target triple = "x86_64-pc-linux-gnu"

@.str = private unnamed_addr constant [5 x i8] c"%d%d\00", align 1
@.str.1 = private unnamed_addr constant [3 x i8] c"%d\00", align 1
@.str.2 = private unnamed_addr constant [4 x i8] c"%d \00", align 1

; Function Attrs: nofree nounwind sspstrong uwtable
define dso_local i32 @main(i32 %0, i8** nocapture readnone %1) local_unnamed_addr #0 {
  %3 = alloca i32, align 4
  %4 = alloca i32, align 4
  %5 = bitcast i32* %3 to i8*
  call void @llvm.lifetime.start.p0i8(i64 4, i8* nonnull %5) #4
  %6 = bitcast i32* %4 to i8*
  call void @llvm.lifetime.start.p0i8(i64 4, i8* nonnull %6) #4
  %7 = call i32 (i8*, ...) @__isoc99_scanf(i8* getelementptr inbounds ([5 x i8], [5 x i8]* @.str, i64 0, i64 0), i32* nonnull %3, i32* nonnull %4)
  %8 = load i32, i32* %3, align 4, !tbaa !5
  %9 = sext i32 %8 to i64
  %10 = shl nsw i64 %9, 2
  %11 = call noalias align 16 i8* @malloc(i64 %10) #4
  %12 = bitcast i8* %11 to i32*
  %13 = call noalias align 16 i8* @malloc(i64 %10) #4
  %14 = bitcast i8* %13 to i32*
  %15 = icmp sgt i32 %8, 0
  br i1 %15, label %16, label %24

16:                                               ; preds = %2, %16
  %17 = phi i64 [ %20, %16 ], [ 0, %2 ]
  %18 = getelementptr inbounds i32, i32* %12, i64 %17
  %19 = call i32 (i8*, ...) @__isoc99_scanf(i8* getelementptr inbounds ([3 x i8], [3 x i8]* @.str.1, i64 0, i64 0), i32* %18)
  %20 = add nuw nsw i64 %17, 1
  %21 = load i32, i32* %3, align 4, !tbaa !5
  %22 = sext i32 %21 to i64
  %23 = icmp slt i64 %20, %22
  br i1 %23, label %16, label %24, !llvm.loop !9

24:                                               ; preds = %16, %2
  %25 = phi i32 [ %8, %2 ], [ %21, %16 ]
  %26 = load i32, i32* %4, align 4, !tbaa !5
  %27 = sub i32 %25, %26
  %28 = icmp slt i32 %27, %25
  br i1 %28, label %29, label %33

29:                                               ; preds = %24
  %30 = sext i32 %27 to i64
  br label %37

31:                                               ; preds = %37
  %32 = load i32, i32* %4, align 4, !tbaa !5
  br label %33

33:                                               ; preds = %31, %24
  %34 = phi i32 [ %32, %31 ], [ %26, %24 ]
  %35 = phi i32 [ %46, %31 ], [ %25, %24 ]
  %36 = icmp sgt i32 %35, %34
  br i1 %36, label %49, label %74

37:                                               ; preds = %29, %37
  %38 = phi i64 [ 0, %29 ], [ %45, %37 ]
  %39 = phi i64 [ %30, %29 ], [ %44, %37 ]
  %40 = getelementptr inbounds i32, i32* %12, i64 %39
  %41 = load i32, i32* %40, align 4, !tbaa !5
  %42 = getelementptr inbounds i32, i32* %14, i64 %38
  store i32 %41, i32* %42, align 4, !tbaa !5
  %43 = call i32 (i8*, ...) @printf(i8* nonnull dereferenceable(1) getelementptr inbounds ([4 x i8], [4 x i8]* @.str.2, i64 0, i64 0), i32 %41)
  %44 = add nsw i64 %39, 1
  %45 = add nuw nsw i64 %38, 1
  %46 = load i32, i32* %3, align 4, !tbaa !5
  %47 = sext i32 %46 to i64
  %48 = icmp slt i64 %44, %47
  br i1 %48, label %37, label %31, !llvm.loop !11

49:                                               ; preds = %33, %67
  %50 = phi i32 [ %68, %67 ], [ %34, %33 ]
  %51 = phi i32 [ %69, %67 ], [ %35, %33 ]
  %52 = phi i64 [ %70, %67 ], [ 0, %33 ]
  %53 = getelementptr inbounds i32, i32* %12, i64 %52
  %54 = load i32, i32* %53, align 4, !tbaa !5
  %55 = trunc i64 %52 to i32
  %56 = add nsw i32 %50, %55
  %57 = sext i32 %56 to i64
  %58 = getelementptr inbounds i32, i32* %14, i64 %57
  store i32 %54, i32* %58, align 4, !tbaa !5
  %59 = xor i32 %50, -1
  %60 = add i32 %51, %59
  %61 = zext i32 %60 to i64
  %62 = icmp eq i64 %52, %61
  br i1 %62, label %67, label %63

63:                                               ; preds = %49
  %64 = call i32 (i8*, ...) @printf(i8* nonnull dereferenceable(1) getelementptr inbounds ([4 x i8], [4 x i8]* @.str.2, i64 0, i64 0), i32 %54)
  %65 = load i32, i32* %3, align 4, !tbaa !5
  %66 = load i32, i32* %4, align 4, !tbaa !5
  br label %67

67:                                               ; preds = %49, %63
  %68 = phi i32 [ %50, %49 ], [ %66, %63 ]
  %69 = phi i32 [ %51, %49 ], [ %65, %63 ]
  %70 = add nuw nsw i64 %52, 1
  %71 = sub nsw i32 %69, %68
  %72 = sext i32 %71 to i64
  %73 = icmp slt i64 %70, %72
  br i1 %73, label %49, label %74, !llvm.loop !12

74:                                               ; preds = %67, %33
  %75 = phi i32 [ %35, %33 ], [ %69, %67 ]
  %76 = add nsw i32 %75, -1
  %77 = sext i32 %76 to i64
  %78 = getelementptr inbounds i32, i32* %14, i64 %77
  %79 = load i32, i32* %78, align 4, !tbaa !5
  %80 = call i32 (i8*, ...) @printf(i8* nonnull dereferenceable(1) getelementptr inbounds ([3 x i8], [3 x i8]* @.str.1, i64 0, i64 0), i32 %79)
  call void @llvm.lifetime.end.p0i8(i64 4, i8* nonnull %6) #4
  call void @llvm.lifetime.end.p0i8(i64 4, i8* nonnull %5) #4
  ret i32 0
}

; Function Attrs: argmemonly mustprogress nofree nosync nounwind willreturn
declare void @llvm.lifetime.start.p0i8(i64 immarg, i8* nocapture) #1

; Function Attrs: nofree nounwind
declare noundef i32 @__isoc99_scanf(i8* nocapture noundef readonly, ...) local_unnamed_addr #2

; Function Attrs: inaccessiblememonly mustprogress nofree nounwind willreturn
declare noalias noundef align 16 i8* @malloc(i64 noundef) local_unnamed_addr #3

; Function Attrs: nofree nounwind
declare noundef i32 @printf(i8* nocapture noundef readonly, ...) local_unnamed_addr #2

; Function Attrs: argmemonly mustprogress nofree nosync nounwind willreturn
declare void @llvm.lifetime.end.p0i8(i64 immarg, i8* nocapture) #1


!llvm.module.flags = !{!0, !1, !2, !3}
!llvm.ident = !{!4}

!0 = !{i32 1, !"wchar_size", i32 4}
!1 = !{i32 7, !"PIC Level", i32 2}
!2 = !{i32 7, !"PIE Level", i32 2}
!3 = !{i32 7, !"uwtable", i32 1}
!4 = !{!"clang version 13.0.0"}
!5 = !{!6, !6, i64 0}
!6 = !{!"int", !7, i64 0}
!7 = !{!"omnipotent char", !8, i64 0}
!8 = !{!"Simple C/C++ TBAA"}
!9 = distinct !{!9, !10}
!10 = !{!"llvm.loop.mustprogress"}
!11 = distinct !{!11, !10}
!12 = distinct !{!12, !10}
